(dp0
S'neworleanssquare'
p1
(lp2
I2
aI2
aI2
aI2
aI0
aI0
aI1
aI0
aI1
aI1
aI1
aI1
aI2
aI3
aI2
aI2
aI0
aI0
aI1
aI2
aI1
aI0
aI2
aI2
aI1
aI0
aI2
aI2
aI0
aI0
aI3
aI0
aI0
aI0
aI0
aI0
aI0
aI0
aI0
aI3
aI2
aI2
aI1
aI2
aI1
aI2
aI2
aI1
aI2
aI2
aI0
aI3
aI2
aI0
aI2
aI1
aI1
aI1
aI1
aI1
aI0
aI0
aI0
aI1
aI0
aI0
aI2
aI2
aI2
asS'mainstreet'
p3
(lp4
I2
aI2
aI2
aI3
aI0
aI0
aI2
aI0
aI1
aI3
aI2
aI2
aI0
aI2
aI0
aI0
aI2
aI2
aI0
aI2
aI2
aI2
aI0
aI0
aI1
aI1
aI2
aI2
aI0
aI1
aI1
aI2
aI1
aI2
aI3
aI0
aI0
aI3
aI0
aI1
aI2
aI0
aI1
aI0
aI0
aI0
aI2
aI0
aI0
aI0
aI2
aI2
aI0
aI1
aI2
aI2
aI1
aI0
aI0
aI1
aI1
aI2
aI2
aI2
aI0
aI2
aI0
aI1
aI1
aI2
aI2
aI0
aI2
aI1
aI2
aI2
aI2
aI2
aI1
aI2
aI0
aI0
aI0
aI1
aI0
aI2
aI0
aI3
aI2
aI1
aI2
aI2
aI0
aI1
aI2
aI2
aI2
aI0
asS'frontierland'
p5
(lp6
I0
aI2
aI1
aI2
aI0
aI0
aI0
aI0
aI2
aI4
aI1
aI2
aI0
aI0
aI1
aI2
aI0
aI0
aI0
aI0
aI0
aI0
aI0
aI0
aI2
aI2
aI2
aI0
aI0
aI0
aI2
aI1
aI2
aI1
aI2
aI0
aI2
aI0
aI2
aI2
aI2
aI0
aI0
aI0
aI0
aI1
aI3
aI2
aI1
aI2
aI0
aI1
aI1
aI0
aI2
aI0
aI2
aI1
aI1
aI2
aI0
aI0
aI2
aI0
aI1
aI2
aI1
aI0
aI0
aI3
aI3
aI2
aI3
aI1
aI0
aI3
aI0
aI0
aI0
aI1
aI0
aI0
aI1
aI2
aI0
aI2
aI1
aI1
aI1
aI0
aI1
aI0
aI0
aI0
aI2
aI2
aI0
aI0
aI0
aI0
aI0
aI0
aI1
aI2
aI1
aI2
aI0
aI1
aI0
aI2
aI2
aI2
aI1
aI3
aI2
aI2
aI2
aI1
aI0
aI1
aI2
aI1
aI0
aI0
aI0
aI2
aI3
aI0
aI0
aI0
aI1
aI1
aI1
aI2
aI2
aI2
aI1
aI0
aI0
aI0
aI2
asS'crittercountry'
p7
(lp8
I2
aI2
aI2
aI2
aI2
aI2
aI2
aI0
aI0
aI0
aI0
aI1
aI2
aI1
aI2
aI2
aI3
aI2
aI1
aI2
aI2
aI2
aI1
aI0
aI0
aI1
aI0
aI0
aI2
aI2
aI1
aI0
aI0
aI3
aI0
aI2
aI1
aI1
aI2
aI1
aI0
aI0
aI1
aI1
aI0
aI1
aI0
aI0
aI1
aI0
aI0
aI1
aI0
aI0
aI4
aI1
asS'adventureland'
p9
(lp10
I0
aI1
aI2
aI0
aI0
aI1
aI0
aI0
aI2
aI2
aI2
aI2
aI1
aI1
aI3
aI2
aI1
aI4
aI1
aI2
aI0
aI1
aI0
aI0
aI0
aI2
aI0
aI3
aI2
aI0
aI2
aI1
aI1
aI0
aI1
aI0
aI0
aI2
aI0
aI1
aI1
aI0
aI2
aI0
aI1
aI0
aI2
aI0
aI2
aI0
aI3
aI2
aI2
aI1
aI3
aI2
aI3
aI2
aI2
aI0
aI2
aI1
aI2
aI3
aI0
aI2
aI1
aI1
aI2
aI0
aI0
aI2
aI0
aI0
aI0
aI2
aI1
aI1
aI1
aI1
aI1
aI4
aI1
aI2
aI0
aI1
aI3
aI0
aI3
aI0
aI2
aI1
aI1
aI1
aI0
aI0
aI2
aI2
aI2
aI0
aI2
aI2
aI2
aI2
aI1
aI0
aI0
aI0
aI2
aI0
aI2
aI1
aI0
aI0
aI1
aI1
aI1
aI0
aI2
aI0
aI2
aI3
aI2
aI0
asS'toontown'
p11
(lp12
I0
aI0
aI0
aI0
aI0
aI1
aI0
aI1
aI1
aI0
aI1
aI1
aI2
aI0
aI0
aI2
aI1
aI0
aI2
aI2
aI0
aI1
aI1
aI3
aI0
aI1
aI0
aI0
aI0
aI0
aI4
aI2
aI2
aI1
aI2
aI2
aI2
aI0
aI0
aI2
aI0
aI0
aI0
aI2
aI0
aI0
aI0
aI2
aI2
aI1
aI0
aI0
aI1
aI1
aI2
aI0
aI0
aI2
aI1
aI0
aI0
aI2
aI0
aI1
aI0
aI2
aI2
aI0
aI3
aI4
aI0
aI0
aI0
aI0
aI1
aI0
aI0
aI0
aI0
aI0
aI2
aI2
aI0
aI3
aI1
aI1
aI2
aI1
aI0
aI3
aI2
aI2
aI1
aI2
aI1
asS'tomorrowland'
p13
(lp14
I0
aI2
aI2
aI2
aI2
aI2
aI2
aI2
aI1
aI0
aI0
aI2
aI2
aI1
aI0
aI2
aI2
aI0
aI0
aI3
aI1
aI2
aI2
aI1
aI2
aI0
aI0
aI0
aI1
aI2
aI0
aI1
aI0
aI1
aI2
aI2
aI1
aI2
aI2
aI2
aI2
aI0
aI1
aI2
aI0
aI0
aI0
aI0
aI0
aI0
aI2
aI2
as.