(dp0
S'neworleanssquare'
p1
(lp2
I0
aI0
aI-1
aI-2
aI0
aI0
aI0
aI0
aI0
aI0
aI0
aI0
aI0
aI0
aI0
aI0
aI0
aI0
aI0
aI-1
aI-1
aI0
aI0
aI0
aI0
aI0
aI0
aI0
aI0
aI-2
aI-1
aI0
aI-2
aI0
aI-2
aI0
aI0
aI0
aI0
aI0
aI0
aI0
aI-1
aI0
aI0
aI0
aI0
aI-1
aI0
aI-2
aI0
aI0
aI0
aI0
aI0
aI-2
aI0
aI0
aI0
aI0
aI0
aI0
aI-1
aI-1
aI-2
aI0
aI-3
aI0
aI0
asS'mainstreet'
p3
(lp4
I0
aI-1
aI0
aI0
aI0
aI0
aI0
aI-1
aI0
aI0
aI0
aI0
aI0
aI0
aI0
aI0
aI0
aI0
aI0
aI0
aI0
aI0
aI0
aI0
aI0
aI0
aI0
aI0
aI0
aI-2
aI0
aI0
aI0
aI0
aI0
aI0
aI0
aI0
aI0
aI0
aI0
aI0
aI0
aI-2
aI0
aI0
aI0
aI0
aI0
aI0
aI0
aI0
aI0
aI0
aI0
aI0
aI-1
aI0
aI0
aI0
aI0
aI0
aI0
aI0
aI0
aI-3
aI0
aI-1
aI0
aI0
aI0
aI0
aI0
aI0
aI0
aI-2
aI-1
aI0
aI0
aI0
aI0
aI0
aI0
aI0
aI0
aI0
aI0
aI0
aI0
aI-1
aI0
aI0
aI0
aI0
aI0
aI0
aI0
aI0
asS'frontierland'
p5
(lp6
I-1
aI0
aI0
aI-1
aI0
aI-1
aI0
aI0
aI-1
aI0
aI0
aI0
aI-1
aI0
aI0
aI0
aI0
aI0
aI0
aI0
aI0
aI0
aI0
aI0
aI0
aI0
aI-2
aI0
aI0
aI0
aI0
aI0
aI0
aI0
aI0
aI-2
aI0
aI0
aI-3
aI0
aI-3
aI-1
aI0
aI0
aI0
aI0
aI0
aI0
aI0
aI0
aI0
aI0
aI0
aI0
aI-3
aI0
aI0
aI-4
aI-3
aI0
aI0
aI0
aI0
aI0
aI0
aI0
aI0
aI-1
aI0
aI-1
aI0
aI0
aI0
aI-1
aI0
aI0
aI-2
aI0
aI0
aI0
aI-2
aI-2
aI0
aI0
aI0
aI0
aI0
aI0
aI0
aI0
aI0
aI0
aI0
aI0
aI0
aI-3
aI-1
aI-2
aI0
aI0
aI0
aI0
aI0
aI0
aI0
aI0
aI0
aI0
aI0
aI0
aI0
aI0
aI0
aI0
aI-2
aI-1
aI0
aI-1
aI0
aI0
aI0
aI-2
aI0
aI0
aI0
aI0
aI0
aI0
aI0
aI-1
aI0
aI0
aI0
aI0
aI0
aI0
aI0
aI0
aI0
aI-1
aI0
asS'crittercountry'
p7
(lp8
I0
aI-4
aI-2
aI-2
aI-3
aI0
aI-1
aI0
aI0
aI0
aI0
aI0
aI0
aI-1
aI0
aI0
aI0
aI0
aI0
aI0
aI0
aI0
aI0
aI-2
aI0
aI-1
aI0
aI-2
aI0
aI0
aI0
aI0
aI0
aI-1
aI0
aI-2
aI0
aI0
aI0
aI0
aI0
aI0
aI0
aI0
aI0
aI0
aI0
aI0
aI0
aI-2
aI0
aI0
aI0
aI-1
aI-1
aI0
asS'adventureland'
p9
(lp10
I0
aI-2
aI-1
aI0
aI0
aI0
aI0
aI-1
aI0
aI0
aI-1
aI0
aI-2
aI0
aI0
aI0
aI0
aI0
aI0
aI0
aI0
aI-2
aI0
aI0
aI0
aI0
aI0
aI-1
aI0
aI0
aI-1
aI0
aI-1
aI0
aI0
aI-1
aI0
aI0
aI-1
aI0
aI0
aI0
aI0
aI-2
aI0
aI0
aI0
aI0
aI0
aI0
aI-1
aI0
aI0
aI0
aI0
aI0
aI0
aI0
aI0
aI0
aI-2
aI0
aI0
aI0
aI-1
aI0
aI0
aI0
aI-1
aI0
aI0
aI-3
aI0
aI0
aI0
aI0
aI0
aI0
aI0
aI-3
aI-2
aI0
aI0
aI0
aI0
aI-1
aI-1
aI-2
aI-1
aI0
aI0
aI0
aI0
aI-2
aI0
aI0
aI0
aI0
aI0
aI0
aI0
aI-2
aI-1
aI0
aI-1
aI-1
aI-1
aI-1
aI-1
aI0
aI0
aI0
aI0
aI0
aI0
aI0
aI0
aI0
aI0
aI0
aI-1
aI0
aI0
aI0
asS'toontown'
p11
(lp12
I0
aI0
aI0
aI0
aI0
aI0
aI0
aI0
aI0
aI0
aI0
aI-1
aI-1
aI0
aI0
aI0
aI-3
aI0
aI0
aI0
aI0
aI0
aI0
aI0
aI0
aI0
aI0
aI-1
aI0
aI0
aI-3
aI-1
aI0
aI0
aI0
aI0
aI0
aI0
aI0
aI0
aI-1
aI0
aI0
aI0
aI0
aI0
aI0
aI0
aI0
aI0
aI0
aI0
aI0
aI0
aI0
aI0
aI0
aI0
aI0
aI0
aI0
aI-1
aI0
aI-4
aI0
aI0
aI0
aI0
aI-1
aI0
aI0
aI0
aI0
aI0
aI-1
aI0
aI-2
aI0
aI0
aI0
aI0
aI0
aI0
aI0
aI0
aI0
aI0
aI-1
aI0
aI-2
aI0
aI0
aI0
aI0
aI0
asS'tomorrowland'
p13
(lp14
I-1
aI0
aI-1
aI0
aI0
aI0
aI0
aI0
aI-3
aI0
aI0
aI0
aI0
aI0
aI0
aI0
aI0
aI0
aI0
aI0
aI0
aI0
aI0
aI0
aI-1
aI0
aI0
aI0
aI-1
aI0
aI0
aI0
aI0
aI0
aI0
aI0
aI0
aI0
aI-2
aI-1
aI0
aI-2
aI0
aI0
aI0
aI0
aI0
aI0
aI0
aI0
aI0
aI0
as.