(lp0
I0
aI0
aI-1
aI0
aI0
aI0
aI0
aI0
aI0
aI0
aI0
aI0
aI0
aI0
aI0
aI0
aI0
aI0
aI0
aI0
aI0
aI0
aI0
aI-1
aI0
aI0
aI-1
aI0
aI-1
aI0
aI0
aI0
aI-3
aI0
aI0
aI0
aI0
aI0
aI0
aI0
aI0
aI0
aI0
aI0
aI0
aI0
aI0
aI-1
aI0
aI0
aI0
aI0
aI0
aI0
aI0
aI0
aI-1
aI0
aI0
aI0
aI0
aI-3
aI-1
aI0
aI0
aI0
aI0
aI-1
aI0
aI-1
aI-1
aI0
aI0
aI0
aI0
aI0
aI0
aI0
aI0
aI0
aI0
aI-1
aI0
aI-1
aI0
aI0
aI0
aI0
aI0
aI0
aI-3
aI0
aI0
aI0
aI0
aI0
aI0
aI0
aI-2
aI0
aI0
aI-2
aI0
aI0
aI0
aI0
aI0
aI0
aI0
aI0
aI0
aI0
aI0
aI0
aI0
aI0
aI0
aI0
aI0
aI0
aI0
aI0
aI0
aI0
aI0
aI0
aI0
aI0
aI0
aI0
aI-1
aI0
aI0
aI0
aI0
aI0
aI0
aI0
aI0
aI0
aI0
aI0
aI0
aI0
aI0
aI0
aI0
aI0
aI0
aI-5
aI0
aI0
aI0
aI0
aI0
aI-3
aI0
aI0
aI0
aI0
aI-3
aI0
aI0
aI0
aI-2
aI0
aI0
aI0
aI0
aI0
aI0
aI0
aI0
aI0
aI-3
aI0
aI0
aI0
aI0
aI0
aI0
aI0
aI0
aI0
aI0
aI0
aI0
aI0
aI0
aI0
aI0
aI0
aI-1
aI0
aI0
aI-3
aI-3
aI0
aI-1
aI0
aI0
aI0
aI0
aI0
aI-4
aI0
aI0
aI0
aI-3
aI0
aI0
aI0
aI0
aI0
aI0
aI0
aI0
aI0
aI0
aI-1
aI0
aI-1
aI0
aI0
aI0
aI0
aI0
aI0
aI0
aI0
aI0
aI-1
aI0
aI0
aI-2
aI-1
aI0
aI0
aI0
aI0
aI0
aI0
aI-2
aI0
aI0
aI0
aI0
aI0
aI0
aI0
aI0
aI0
aI0
aI0
aI0
aI0
aI0
aI0
aI0
aI0
aI0
aI0
aI0
aI0
aI0
aI0
aI0
aI0
aI0
aI0
aI0
aI-1
aI0
aI0
aI0
aI-1
aI0
aI0
aI0
aI0
aI0
aI0
aI0
aI0
aI0
aI0
aI0
aI0
aI0
aI0
aI0
aI0
aI0
aI0
aI-2
aI-1
aI0
aI0
aI0
aI0
aI0
aI0
aI0
aI0
aI0
aI0
aI-2
aI0
aI0
aI0
aI0
aI0
aI0
aI0
aI0
aI0
aI0
aI0
aI0
aI0
aI0
aI0
aI0
aI0
aI0
aI0
aI0
aI0
aI0
aI0
aI0
aI0
aI0
aI0
aI0
aI0
aI-3
aI-1
aI0
aI0
aI0
aI0
aI0
aI0
aI0
aI0
aI0
aI0
aI0
aI0
aI0
aI0
aI0
aI-1
aI0
aI0
aI0
aI0
aI-1
aI0
aI0
aI0
aI0
aI0
aI0
aI0
aI0
aI-1
aI0
aI-3
aI0
aI0
aI0
aI-1
aI0
aI0
aI-2
aI0
aI0
aI0
aI0
aI0
aI0
aI-2
aI-1
aI-6
aI-4
aI-1
aI0
aI0
aI-2
aI0
aI-3
aI-3
aI-2
aI0
aI0
aI0
aI0
aI0
aI0
aI-1
aI0
aI0
aI0
aI-1
aI0
aI0
aI0
aI0
aI-2
aI-1
aI0
aI-1
aI0
aI0
aI0
aI0
aI-1
aI0
aI0
aI-1
aI0
aI-1
aI0
aI-1
aI0
aI0
aI0
aI0
aI0
aI0
aI0
aI0
aI0
aI0
aI0
aI0
aI-1
aI-1
aI0
aI0
aI0
aI0
aI0
aI0
aI0
aI0
aI0
aI0
aI0
aI0
aI0
aI0
aI0
aI0
aI0
aI0
aI-2
aI-1
aI0
aI0
aI0
aI0
aI0
aI-3
aI0
aI-2
aI0
aI0
aI-2
aI0
aI0
aI0
aI0
aI0
aI0
aI0
aI-2
aI0
aI0
aI0
aI0
aI-1
aI0
aI0
aI-1
aI0
aI0
aI0
aI0
aI0
aI-1
aI-2
aI0
aI0
aI0
aI0
aI0
aI0
aI0
aI0
aI0
aI0
aI0
aI0
aI-1
aI-2
aI0
aI0
aI0
aI0
aI0
aI0
aI0
aI0
aI0
aI0
aI-1
aI0
aI0
aI-2
aI0
aI0
aI0
aI0
aI0
aI0
aI0
aI0
aI0
aI0
aI0
aI0
aI0
aI0
aI-1
aI0
aI0
aI-3
aI-4
aI0
aI0
aI0
aI0
aI-2
aI0
aI-2
aI-1
aI0
aI0
aI0
aI0
aI0
aI0
aI0
aI0
aI0
aI0
aI0
aI0
aI0
aI0
aI0
aI0
aI0
aI0
aI0
aI0
aI-1
aI0
aI0
aI0
aI0
aI0
aI-1
aI0
aI0
aI0
aI0
aI0
aI0
aI0
aI0
aI-1
aI-3
aI-1
aI0
aI0
aI0
aI0
aI0
aI0
aI0
aI0
aI0
aI0
aI0
aI0
aI0
aI0
aI0
aI0
aI-3
aI-2
aI0
aI0
aI0
aI0
aI0
aI0
aI-1
aI0
aI0
aI0
aI0
aI0
aI-3
aI0
aI0
aI0
aI0
aI0
aI0
aI-2
aI0
aI-1
aI0
aI0
aI0
aI0
aI0
aI0
aI0
aI0
aI0
aI0
aI0
aI0
aI0
aI0
aI-1
aI0
aI0
aI0
aI0
aI0
aI0
aI0
aI0
aI0
aI0
aI0
aI-2
aI0
aI0
aI0
aI0
aI0
aI-3
aI0
aI0
aI0
aI0
aI0
aI-1
aI0
aI-1
aI0
aI0
aI0
aI0
aI0
aI-2
aI0
aI0
aI-1
aI-3
aI0
aI0
aI0
aI0
aI0
aI0
aI0
aI0
aI0
aI0
aI0
aI0
aI0
aI0
aI0
aI0
aI-1
aI0
aI0
aI0
aI0
aI0
aI0
aI0
aI0
aI0
aI0
aI0
aI0
aI-2
aI0
aI0
aI0
aI0
aI0
aI0
aI0
aI-2
aI0
aI0
aI0
aI0
aI0
aI0
aI0
aI0
aI0
aI0
aI0
aI0
aI0
aI0
aI0
aI0
aI0
aI0
aI0
aI0
aI0
aI0
aI0
aI0
aI0
aI0
aI0
aI0
aI0
aI0
aI0
aI0
aI0
aI-3
aI0
aI0
aI0
aI0
aI0
aI0
aI0
aI-2
aI0
aI0
aI0
aI0
aI0
aI0
aI0
aI0
aI0
aI0
aI0
aI-3
aI0
aI0
aI0
aI0
aI0
aI0
aI0
aI-2
aI0
aI0
aI-1
aI0
aI-1
aI-1
aI0
aI-1
aI0
aI0
aI0
aI0
aI0
aI0
aI0
aI0
aI0
aI0
aI0
aI0
aI0
aI0
aI0
aI0
aI0
aI0
aI0
aI0
aI-1
aI0
aI0
aI0
aI0
aI0
aI0
aI0
aI0
aI-1
aI0
aI0
aI-1
aI0
aI0
aI0
aI0
aI0
aI0
aI-1
aI0
aI0
aI-1
aI0
aI0
aI0
aI-2
aI0
aI0
aI0
aI-1
aI0
aI-2
aI0
aI0
aI-1
aI0
aI-3
aI0
aI0
aI0
aI0
aI-3
aI0
aI0
aI0
aI0
aI0
aI0
aI0
aI0
aI0
aI0
aI0
aI0
aI0
aI0
aI0
aI0
aI0
aI0
aI0
aI0
aI0
aI-1
aI-2
aI0
aI0
aI0
aI0
aI0
aI0
aI0
aI0
aI0
aI0
aI0
aI0
aI0
aI-1
aI0
aI0
aI0
aI0
aI-2
aI0
aI0
aI-1
aI0
aI0
aI0
aI0
aI0
aI0
aI0
aI-3
aI0
aI0
aI0
aI0
aI-1
aI0
aI0
aI-2
aI0
aI-1
aI0
aI0
aI0
aI0
aI0
aI0
aI0
aI0
aI0
aI0
aI0
aI0
aI0
aI0
aI0
aI-3
aI-1
aI0
aI0
aI0
aI0
aI0
aI0
aI-3
aI0
aI0
aI0
aI0
aI0
aI0
aI0
aI0
aI0
aI-1
aI-1
aI0
aI0
aI0
aI0
aI0
aI0
aI0
aI0
aI-1
aI0
aI0
aI0
aI0
aI0
aI0
aI0
aI0
aI0
aI0
aI0
aI0
aI0
aI0
aI0
aI-4
aI-1
aI-4
aI0
aI-4
aI-4
aI-4
aI-4
aI0
aI-4
aI-1
aI0
aI0
aI0
aI0
aI0
aI0
aI0
aI0
aI0
aI0
aI0
aI0
aI0
aI0
aI0
aI0
aI0
aI0
aI0
aI0
aI0
aI0
aI0
aI-2
aI0
aI0
aI0
aI0
aI0
aI0
aI0
aI0
aI0
aI0
aI0
aI0
aI0
aI0
aI0
aI0
aI0
aI0
aI0
aI0
aI-3
aI-1
aI-1
aI-2
aI0
aI0
aI0
aI-2
aI0
aI0
aI0
aI0
aI-2
aI-1
aI0
aI0
aI0
aI0
aI0
aI0
aI0
aI-1
aI-1
aI-3
aI0
aI-1
aI0
aI-2
aI0
aI-2
aI-2
aI0
aI-1
aI0
aI0
aI0
aI-2
aI0
aI0
aI0
aI0
aI0
aI0
aI0
aI0
aI0
aI-3
aI0
aI0
aI0
aI0
aI0
aI0
aI0
aI0
aI0
aI0
aI0
aI0
aI0
aI0
aI0
aI-3
aI0
aI0
aI-2
aI-3
aI0
aI0
aI0
aI0
aI0
aI0
aI0
a.