(lp0
ccopy_reg
_reconstructor
p1
(cscrape
MyStruct
p2
c__builtin__
tuple
p3
(F1862.0
F504.0
F98.0
F33.0
F31.0
F459.0
F550.0
F108.0
F1097.0
F4.5
F4.5
F4.5
F4.5
F4.5
F5.0
F4.634889240506329
tp4
tp5
Rp6
ag1
(g2
g3
(F479.0
F420.0
F163.0
F67.0
F33.0
F238.0
F333.0
F105.0
F324.0
F4.5
F4.0
F4.0
F4.5
F4.0
F4.5
F4.071428571428571
tp7
tp8
Rp9
ag1
(g2
g3
(F623.0
F274.0
F43.0
F8.0
F11.0
F227.0
F221.0
F70.0
F297.0
F5.0
F4.5
F4.5
F4.5
F4.5
F4.5
F4.553701772679875
tp10
tp11
Rp12
ag1
(g2
g3
(F1172.0
F496.0
F104.0
F30.0
F19.0
F327.0
F827.0
F117.0
F322.0
F5.0
F4.5
F4.5
F4.5
F4.0
F4.5
F4.522240527182866
tp13
tp14
Rp15
ag1
(g2
g3
(F1069.0
F829.0
F276.0
F91.0
F34.0
F545.0
F493.0
F103.0
F771.0
F5.0
F4.5
F4.5
F4.5
F4.0
F4.5
F4.221400608960417
tp16
tp17
Rp18
ag1
(g2
g3
(F988.0
F189.0
F43.0
F15.0
F11.0
F282.0
F461.0
F55.0
F255.0
F5.0
F4.5
F4.5
F5.0
F4.5
F5.0
F4.707865168539326
tp19
tp20
Rp21
ag1
(g2
g3
(F2359.0
F438.0
F81.0
F39.0
F12.0
F907.0
F848.0
F146.0
F584.0
F5.0
F5.0
F5.0
F5.0
F4.5
F5.0
F4.738818709457153
tp22
tp23
Rp24
ag1
(g2
g3
(F1084.0
F613.0
F181.0
F40.0
F17.0
F443.0
F619.0
F78.0
F293.0
F4.5
F4.5
F4.5
F4.5
F4.0
F4.5
F4.398966408268734
tp25
tp26
Rp27
ag1
(g2
g3
(F1873.0
F509.0
F107.0
F45.0
F20.0
F627.0
F986.0
F142.0
F378.0
F5.0
F4.5
F4.5
F4.5
F4.5
F5.0
F4.6327329678935
tp28
tp29
Rp30
ag1
(g2
g3
(F244.0
F81.0
F21.0
F7.0
F1.0
F102.0
F101.0
F28.0
F62.0
F4.5
F4.0
F4.5
F4.5
F4.5
F5.0
F4.581920903954802
tp31
tp32
Rp33
ag1
(g2
g3
(F193.0
F220.0
F72.0
F19.0
F19.0
F105.0
F126.0
F17.0
F199.0
F4.5
F4.5
F4.0
F4.0
F4.0
F4.5
F4.049713193116634
tp34
tp35
Rp36
ag1
(g2
g3
(F574.0
F729.0
F280.0
F90.0
F27.0
F411.0
F457.0
F116.0
F468.0
F4.5
F4.0
F4.0
F4.0
F4.0
F4.5
F4.0194117647058825
tp37
tp38
Rp39
ag1
(g2
g3
(F804.0
F419.0
F112.0
F41.0
F29.0
F245.0
F558.0
F51.0
F324.0
F4.5
F4.5
F4.5
F4.5
F4.0
F4.5
F4.372241992882563
tp40
tp41
Rp42
ag1
(g2
g3
(F416.0
F260.0
F107.0
F49.0
F28.0
F128.0
F310.0
F67.0
F215.0
F4.5
F4.5
F4.0
F4.5
F3.5
F4.5
F4.147674418604651
tp43
tp44
Rp45
ag1
(g2
g3
(F1133.0
F526.0
F129.0
F56.0
F47.0
F381.0
F665.0
F127.0
F472.0
F4.5
F4.5
F4.5
F4.5
F4.0
F4.5
F4.3971443680592275
tp46
tp47
Rp48
ag1
(g2
g3
(F347.0
F133.0
F22.0
F9.0
F3.0
F194.0
F85.0
F16.0
F83.0
F4.5
F4.5
F4.5
F4.5
F4.5
F5.0
F4.57976653696498
tp49
tp50
Rp51
ag1
(g2
g3
(F377.0
F146.0
F11.0
F12.0
F12.0
F216.0
F178.0
F15.0
F45.0
F5.0
F4.5
F4.5
F4.5
F4.0
F4.5
F4.548387096774194
tp52
tp53
Rp54
ag1
(g2
g3
(F387.0
F459.0
F97.0
F47.0
F40.0
F87.0
F542.0
F74.0
F112.0
F5.0
F4.0
F4.0
F4.0
F4.0
F4.5
F4.07378640776699
tp55
tp56
Rp57
ag1
(g2
g3
(F244.0
F597.0
F333.0
F123.0
F62.0
F388.0
F324.0
F105.0
F229.0
F4.5
F4.0
F3.5
F4.0
F4.0
F4.0
F3.616629874908021
tp58
tp59
Rp60
ag1
(g2
g3
(F133.0
F254.0
F98.0
F27.0
F23.0
F129.0
F194.0
F38.0
F78.0
F4.0
F3.5
F4.0
F4.0
F4.0
F4.0
F3.8355140186915886
tp61
tp62
Rp63
ag1
(g2
g3
(F2015.0
F1480.0
F558.0
F242.0
F134.0
F917.0
F1513.0
F247.0
F996.0
F5.0
F4.0
F4.0
F4.5
F4.0
F4.5
F4.128923007450892
tp64
tp65
Rp66
ag1
(g2
g3
(F731.0
F1297.0
F980.0
F641.0
F500.0
F615.0
F1232.0
F287.0
F1131.0
F4.5
F3.5
F3.0
F3.5
F3.5
F3.5
F3.269462521089419
tp67
tp68
Rp69
ag1
(g2
g3
(F393.0
F211.0
F77.0
F28.0
F32.0
F126.0
F262.0
F28.0
F173.0
F4.5
F4.0
F4.0
F4.5
F3.5
F4.5
F4.221322537112011
tp70
tp71
Rp72
ag1
(g2
g3
(F173.0
F56.0
F8.0
F1.0
F2.0
F41.0
F73.0
F18.0
F31.0
F4.5
F4.5
F4.5
F4.5
F4.5
F5.0
F4.654166666666667
tp73
tp74
Rp75
ag1
(g2
g3
(F437.0
F375.0
F115.0
F55.0
F33.0
F187.0
F414.0
F59.0
F155.0
F5.0
F4.0
F4.0
F4.0
F4.0
F4.5
F4.111330049261084
tp76
tp77
Rp78
ag1
(g2
g3
(F472.0
F213.0
F58.0
F15.0
F3.0
F172.0
F272.0
F22.0
F148.0
F4.5
F4.5
F4.5
F4.5
F4.0
F4.5
F4.492772667542707
tp79
tp80
Rp81
ag1
(g2
g3
(F916.0
F431.0
F155.0
F68.0
F29.0
F312.0
F554.0
F70.0
F441.0
F5.0
F4.5
F4.0
F4.5
F4.0
F4.5
F4.3364602876798
tp82
tp83
Rp84
ag1
(g2
g3
(F539.0
F358.0
F101.0
F28.0
F15.0
F188.0
F416.0
F88.0
F222.0
F5.0
F4.5
F4.0
F4.5
F4.0
F4.5
F4.323727185398655
tp85
tp86
Rp87
ag1
(g2
g3
(F481.0
F514.0
F216.0
F65.0
F39.0
F426.0
F306.0
F75.0
F301.0
F4.5
F4.0
F4.0
F4.0
F4.0
F4.5
F4.0136882129277565
tp88
tp89
Rp90
ag1
(g2
g3
(F507.0
F372.0
F147.0
F82.0
F32.0
F239.0
F432.0
F76.0
F241.0
F5.0
F4.5
F4.0
F4.0
F4.0
F4.5
F4.087719298245614
tp91
tp92
Rp93
ag1
(g2
g3
(F173.0
F56.0
F8.0
F1.0
F2.0
F41.0
F73.0
F18.0
F31.0
F4.5
F4.5
F4.5
F4.5
F4.5
F5.0
F4.654166666666667
tp94
tp95
Rp96
ag1
(g2
g3
(F311.0
F61.0
F20.0
F7.0
F6.0
F78.0
F114.0
F30.0
F131.0
F5.0
F5.0
F4.5
F4.5
F4.0
F5.0
F4.639506172839506
tp97
tp98
Rp99
ag1
(g2
g3
(F810.0
F140.0
F47.0
F22.0
F13.0
F292.0
F256.0
F47.0
F317.0
F5.0
F5.0
F4.5
F5.0
F4.0
F5.0
F4.658914728682171
tp100
tp101
Rp102
ag1
(g2
g3
(F166.0
F52.0
F6.0
F7.0
F1.0
F64.0
F69.0
F4.0
F52.0
F4.5
F4.5
F5.0
F4.5
F4.0
F5.0
F4.616379310344827
tp103
tp104
Rp105
ag1
(g2
g3
(F1274.0
F508.0
F160.0
F63.0
F49.0
F471.0
F613.0
F103.0
F522.0
F5.0
F4.5
F4.5
F4.5
F4.0
F4.5
F4.4094449853943525
tp106
tp107
Rp108
ag1
(g2
g3
(F429.0
F193.0
F65.0
F29.0
F23.0
F220.0
F205.0
F29.0
F115.0
F4.5
F4.5
F4.5
F4.5
F4.0
F4.5
F4.320703653585927
tp109
tp110
Rp111
ag1
(g2
g3
(F295.0
F105.0
F20.0
F7.0
F2.0
F78.0
F186.0
F51.0
F87.0
F5.0
F4.5
F4.5
F4.5
F4.5
F4.5
F4.594405594405594
tp112
tp113
Rp114
ag1
(g2
g3
(F1084.0
F613.0
F181.0
F40.0
F17.0
F443.0
F619.0
F78.0
F293.0
F4.5
F4.5
F4.5
F4.5
F4.0
F4.5
F4.398966408268734
tp115
tp116
Rp117
ag1
(g2
g3
(F276.0
F182.0
F42.0
F14.0
F4.0
F195.0
F140.0
F25.0
F71.0
F4.5
F4.5
F4.5
F4.5
F4.0
F4.5
F4.374517374517374
tp118
tp119
Rp120
ag1
(g2
g3
(F472.0
F326.0
F108.0
F48.0
F22.0
F172.0
F369.0
F55.0
F147.0
F4.5
F4.5
F4.0
F4.5
F4.0
F4.5
F4.206967213114754
tp121
tp122
Rp123
ag1
(g2
g3
(F602.0
F465.0
F137.0
F49.0
F26.0
F430.0
F341.0
F38.0
F250.0
F5.0
F4.0
F4.0
F4.5
F3.5
F4.5
F4.225957779515246
tp124
tp125
Rp126
ag1
(g2
g3
(F298.0
F110.0
F51.0
F39.0
F13.0
F124.0
F120.0
F19.0
F141.0
F4.5
F4.5
F4.5
F4.5
F4.0
F4.5
F4.25440313111546
tp127
tp128
Rp129
ag1
(g2
g3
(F167.0
F133.0
F44.0
F8.0
F8.0
F56.0
F142.0
F18.0
F54.0
F4.5
F4.5
F4.0
F4.5
F4.0
F4.5
F4.230555555555555
tp130
tp131
Rp132
ag1
(g2
g3
(F416.0
F260.0
F107.0
F49.0
F28.0
F128.0
F310.0
F67.0
F215.0
F4.5
F4.5
F4.0
F4.5
F3.5
F4.5
F4.147674418604651
tp133
tp134
Rp135
ag1
(g2
g3
(F173.0
F184.0
F44.0
F20.0
F14.0
F64.0
F200.0
F25.0
F45.0
F5.0
F4.5
F4.0
F4.0
F4.0
F4.5
F4.1080459770114945
tp136
tp137
Rp138
ag1
(g2
g3
(F203.0
F174.0
F59.0
F18.0
F8.0
F112.0
F108.0
F19.0
F141.0
F4.5
F4.5
F4.5
F4.5
F4.0
F4.5
F4.181818181818182
tp139
tp140
Rp141
ag1
(g2
g3
(F470.0
F256.0
F89.0
F35.0
F15.0
F102.0
F431.0
F65.0
F150.0
F5.0
F4.5
F4.5
F4.5
F4.0
F4.5
F4.307514450867052
tp142
tp143
Rp144
ag1
(g2
g3
(F336.0
F382.0
F104.0
F34.0
F15.0
F139.0
F214.0
F62.0
F371.0
F4.5
F4.0
F4.5
F4.0
F4.0
F4.5
F4.13662456946039
tp145
tp146
Rp147
ag1
(g2
g3
(F329.0
F301.0
F71.0
F34.0
F18.0
F44.0
F304.0
F94.0
F140.0
F5.0
F4.0
F4.0
F4.0
F4.0
F4.5
F4.180610889774236
tp148
tp149
Rp150
ag1
(g2
g3
(F582.0
F634.0
F266.0
F85.0
F46.0
F234.0
F383.0
F106.0
F721.0
F4.5
F3.5
F4.0
F4.0
F3.5
F4.5
F4.004959702417855
tp151
tp152
Rp153
ag1
(g2
g3
(F315.0
F387.0
F159.0
F55.0
F45.0
F116.0
F415.0
F107.0
F146.0
F4.5
F4.0
F3.5
F4.0
F4.0
F4.5
F3.9073881373569197
tp154
tp155
Rp156
ag1
(g2
g3
(F345.0
F161.0
F96.0
F43.0
F39.0
F237.0
F100.0
F61.0
F185.0
F4.5
F4.0
F4.0
F4.5
F4.0
F4.0
F4.067251461988304
tp157
tp158
Rp159
ag1
(g2
g3
(F388.0
F442.0
F137.0
F58.0
F35.0
F363.0
F190.0
F68.0
F291.0
F4.0
F4.0
F4.0
F4.0
F4.0
F4.5
F4.028301886792453
tp160
tp161
Rp162
ag1
(g2
g3
(F201.0
F213.0
F93.0
F34.0
F22.0
F172.0
F93.0
F56.0
F161.0
F4.0
F3.5
F4.5
F4.0
F4.0
F4.5
F3.9538188277087034
tp163
tp164
Rp165
ag1
(g2
g3
(F637.0
F935.0
F332.0
F98.0
F35.0
F440.0
F466.0
F95.0
F707.0
F4.5
F4.0
F4.0
F4.0
F3.5
F4.5
F4.001963672066765
tp166
tp167
Rp168
ag1
(g2
g3
(F66.0
F46.0
F18.0
F9.0
F4.0
F17.0
F72.0
F15.0
F13.0
F5.0
F4.0
F4.0
F4.0
F4.0
F4.5
F4.125874125874126
tp169
tp170
Rp171
ag1
(g2
g3
(F348.0
F401.0
F184.0
F68.0
F32.0
F358.0
F166.0
F101.0
F280.0
F4.5
F4.0
F4.0
F4.0
F3.5
F4.5
F3.9341723136495643
tp172
tp173
Rp174
ag1
(g2
g3
(F296.0
F334.0
F161.0
F42.0
F30.0
F203.0
F248.0
F30.0
F226.0
F4.5
F4.0
F4.0
F4.0
F3.5
F4.5
F3.954808806488992
tp175
tp176
Rp177
ag1
(g2
g3
(F413.0
F419.0
F133.0
F49.0
F34.0
F111.0
F353.0
F112.0
F238.0
F4.5
F4.0
F4.0
F4.0
F4.0
F4.5
F4.076335877862595
tp178
tp179
Rp180
ag1
(g2
g3
(F109.0
F137.0
F59.0
F32.0
F41.0
F80.0
F112.0
F37.0
F67.0
F4.5
F3.5
F3.5
F3.5
F4.0
F3.5
F3.6375661375661377
tp181
tp182
Rp183
ag1
(g2
g3
(F74.0
F232.0
F264.0
F152.0
F81.0
F114.0
F232.0
F72.0
F221.0
F4.0
F3.0
F3.0
F3.5
F3.0
F3.5
F3.0821917808219177
tp184
tp185
Rp186
ag1
(g2
g3
(F167.0
F133.0
F44.0
F8.0
F8.0
F56.0
F142.0
F18.0
F54.0
F4.5
F4.5
F4.0
F4.5
F4.0
F4.5
F4.230555555555555
tp187
tp188
Rp189
ag1
(g2
g3
(F80.0
F113.0
F64.0
F27.0
F19.0
F70.0
F92.0
F16.0
F44.0
F4.5
F3.5
F3.5
F4.0
F3.5
F4.0
F3.6864686468646863
tp190
tp191
Rp192
ag1
(g2
g3
(F336.0
F382.0
F104.0
F34.0
F15.0
F139.0
F214.0
F62.0
F371.0
F4.5
F4.0
F4.5
F4.0
F4.0
F4.5
F4.13662456946039
tp193
tp194
Rp195
ag1
(g2
g3
(F295.0
F105.0
F20.0
F7.0
F2.0
F78.0
F186.0
F51.0
F87.0
F5.0
F4.5
F4.5
F4.5
F4.5
F4.5
F4.594405594405594
tp196
tp197
Rp198
ag1
(g2
g3
(F179.0
F302.0
F128.0
F69.0
F34.0
F257.0
F179.0
F17.0
F101.0
F4.0
F3.5
F4.0
F4.0
F4.0
F4.0
F3.734550561797753
tp199
tp200
Rp201
ag1
(g2
g3
(F345.0
F161.0
F96.0
F43.0
F39.0
F237.0
F100.0
F61.0
F185.0
F4.5
F4.0
F4.0
F4.5
F4.0
F4.0
F4.067251461988304
tp202
tp203
Rp204
ag1
(g2
g3
(F348.0
F401.0
F184.0
F68.0
F32.0
F358.0
F166.0
F101.0
F280.0
F4.5
F4.0
F4.0
F4.0
F3.5
F4.5
F3.9341723136495643
tp205
tp206
Rp207
ag1
(g2
g3
(F298.0
F110.0
F51.0
F39.0
F13.0
F124.0
F120.0
F19.0
F141.0
F4.5
F4.5
F4.5
F4.5
F4.0
F4.5
F4.25440313111546
tp208
tp209
Rp210
ag1
(g2
g3
(F47.0
F93.0
F85.0
F34.0
F27.0
F69.0
F91.0
F17.0
F41.0
F3.5
F3.0
F3.5
F3.5
F3.5
F4.0
F3.3461538461538463
tp211
tp212
Rp213
ag1
(g2
g3
(F19.0
F32.0
F57.0
F48.0
F33.0
F57.0
F31.0
F12.0
F41.0
F3.5
F3.0
F3.0
F3.0
F3.0
F3.0
F2.767195767195767
tp214
tp215
Rp216
ag1
(g2
g3
(F56.0
F131.0
F114.0
F60.0
F49.0
F103.0
F112.0
F32.0
F42.0
F3.5
F3.5
F3.0
F3.5
F3.5
F3.5
F3.207317073170732
tp217
tp218
Rp219
ag1
(g2
g3
(F66.0
F46.0
F18.0
F9.0
F4.0
F17.0
F72.0
F15.0
F13.0
F5.0
F4.0
F4.0
F4.0
F4.0
F4.5
F4.125874125874126
tp220
tp221
Rp222
ag1
(g2
g3
(F98.0
F175.0
F101.0
F36.0
F18.0
F91.0
F108.0
F40.0
F138.0
F4.0
F4.0
F4.0
F4.0
F3.5
F4.0
F3.6985981308411215
tp223
tp224
Rp225
ag1
(g2
g3
(F29.0
F119.0
F112.0
F44.0
F64.0
F43.0
F107.0
F77.0
F56.0
F4.5
F3.5
F2.5
F3.5
F3.5
F3.5
F3.0135869565217392
tp226
tp227
Rp228
ag1
(g2
g3
(F91.0
F161.0
F56.0
F22.0
F12.0
F110.0
F90.0
F22.0
F72.0
F4.0
F3.5
F4.5
F4.0
F4.0
F4.5
F3.8684210526315788
tp229
tp230
Rp231
ag1
(g2
g3
(F2.0
F2.0
F8.0
F1.0
F5.0
F4.0
F3.0
F2.0
F3.0
F3.0
F2.5
F2.5
F2.5
F3.0
F3.0
F2.7222222222222223
tp232
tp233
Rp234
a.