(lp0
S'Seaport Boston Hotel'
p1
aS'Hyatt Boston Harbor'
p2
aS'Courtyard by Marriott Boston Copley Square'
p3
aS'Nine Zero Hotel - a Kimpton Hotel'
p4
aS'The Westin Copley Place'
p5
aS'Boston Harbor Hotel'
p6
aS'Hotel Commonwealth'
p7
aS'Revere Hotel Boston Common'
p8
aS'Lenox Hotel'
p9
aS'enVision Hotel Boston'
p10
aS'Sheraton Boston Hotel'
p11
aS'Hilton Boston Back Bay'
p12
aS'The Langham, Boston'
p13
aS'W Boston'
p14
aS'InterContinental Boston'
p15
aS'Residence Inn Boston Back Bay / Fenway'
p16
aS"Marriott's Custom House"
p17
aS'Harborside Inn'
p18
aS'The Midtown Hotel'
p19
aS'Holiday Inn Express Boston'
p20
aS'Omni Parker House'
p21
aS'Boston Park Plaza'
p22
aS'The Liberty Hotel'
p23
aS'The Verb Hotel'
p24
aS'Millennium Bostonian Hotel'
p25
aS'Loews Boston Hotel'
p26
aS'The Fairmont Copley Plaza, Boston'
p27
aS'Copley Square Hotel'
p28
aS'Embassy Suites Boston Logan Airport'
p29
aS'Taj Boston'
p30
aS'The Verb Hotel'
p31
aS'Mandarin Oriental, Boston'
p32
aS'Four Seasons Hotel Boston'
p33
aS'Residence Inn Boston Downtown Seaport'
p34
aS'Colonnade Hotel'
p35
aS'Eliot Hotel'
p36
aS'The Inn At St Botolph'
p37
aS'Revere Hotel Boston Common'
p38
aS'Residence Inn by Marriott Boston Harbor on Tudor Wharf'
p39
aS'Onyx Hotel - a Kimpton Hotel'
p40
aS'Boston Marriott Long Wharf'
p41
aS'The Ritz-Carlton Boston Common'
p42
aS'The Boxer Boston'
p43
aS'W Boston'
p44
aS'Newbury Guest House'
p45
aS'DoubleTree by Hilton Hotel Boston - Downtown'
p46
aS'Ames Boston Hotel'
p47
aS'Renaissance Boston Waterfront Hotel'
p48
aS'Charlesmark Hotel'
p49
aS'The Westin Boston Waterfront'
p50
aS'Hotel 140'
p51
aS'The Inn at Longwood Medical'
p52
aS'DoubleTree Suites by Hilton Boston-Cambridge'
p53
aS'Hampton Inn & Suites Boston Crosstown Center'
p54
aS'Boston Marriott Copley Place'
p55
aS'Beacon Hill Hotel and Bistro'
p56
aS'Wyndham Boston Beacon Hill'
p57
aS'Hilton Boston Downtown / Faneuil Hall'
p58
aS'Club Quarters Boston'
p59
aS'Copley House'
p60
aS'Courtyard Boston Downtown'
p61
aS'The Boxer Boston'
p62
aS'Holiday Inn Express Hotel & Suites Boston Garden'
p63
aS'Renaissance Boston Waterfront Hotel'
p64
aS'The Inn At St Botolph'
p65
aS'BEST WESTERN PLUS Roundhouse Suites'
p66
aS'The Inn at Longwood Medical'
p67
aS'Wyndham Boston Beacon Hill'
p68
aS'The Ritz-Carlton Boston Common'
p69
aS'Comfort Inn - Boston'
p70
aS'Days Hotel Boston'
p71
aS'Constitution Inn'
p72
aS'Beacon Hill Hotel and Bistro'
p73
aS'Courtyard by Marriott Boston Logan Airport'
p74
aS'Milner Hotel'
p75
aS'Courtyard Boston-South Boston'
p76
aS'Americas Best Value Inn'
p77
a.